target datalayout = "e-m:e-p270:32:32-p271:32:32-p272:64:64-i64:64-i128:128-f80:128-n8:16:32:64-S128"
target triple = "x86_64-pc-linux-gnu"

%"class.pxrInternal_v0_24__pxrReserved__::GfMatrix4f" = type { %"class.pxrInternal_v0_24__pxrReserved__::GfMatrixData" }
%"class.pxrInternal_v0_24__pxrReserved__::GfMatrixData" = type { [16 x float] }

; Function Attrs: mustprogress nounwind uwtable
define linkonce_odr noundef ptr @_ZNK32pxrInternal_v0_24__pxrReserved__12GfMatrixDataIfLi4ELi4EEixEi(ptr noundef nonnull align 4 dereferenceable(64) %0, i32 noundef %1) #2 comdat align 2 {
  %3 = alloca ptr, align 8
  %4 = alloca i32, align 4
  store ptr %0, ptr %3, align 8
  store i32 %1, ptr %4, align 4
  %5 = load ptr, ptr %3, align 8
  %6 = getelementptr inbounds nuw %"class.pxrInternal_v0_24__pxrReserved__::GfMatrixData", ptr %5, i32 0, i32 0
  %7 = getelementptr inbounds [16 x float], ptr %6, i64 0, i64 0
  %8 = load i32, ptr %4, align 4
  %9 = mul nsw i32 %8, 4
  %10 = sext i32 %9 to i64
  %11 = getelementptr inbounds float, ptr %7, i64 %10
  ret ptr %11
}

; Function Attrs: mustprogress uwtable
define noundef zeroext i1 @_ZNK32pxrInternal_v0_24__pxrReserved__10GfMatrix4feqERKS0_(ptr noundef nonnull align 4 dereferenceable(64) %0, ptr noundef nonnull align 4 dereferenceable(64) %1) #0 align 2 {
  %3 = alloca ptr, align 8
  %4 = alloca ptr, align 8
  store ptr %0, ptr %3, align 8
  store ptr %1, ptr %4, align 8
  %5 = load ptr, ptr %3, align 8
  %6 = getelementptr inbounds nuw %"class.pxrInternal_v0_24__pxrReserved__::GfMatrix4f", ptr %5, i32 0, i32 0
  %7 = call noundef ptr @_ZNK32pxrInternal_v0_24__pxrReserved__12GfMatrixDataIfLi4ELi4EEixEi(ptr noundef nonnull align 4 dereferenceable(64) %6, i32 noundef 0)
  %8 = getelementptr inbounds float, ptr %7, i64 0
  %9 = load float, ptr %8, align 4
  %10 = load ptr, ptr %4, align 8
  %11 = getelementptr inbounds nuw %"class.pxrInternal_v0_24__pxrReserved__::GfMatrix4f", ptr %10, i32 0, i32 0
  %12 = call noundef ptr @_ZNK32pxrInternal_v0_24__pxrReserved__12GfMatrixDataIfLi4ELi4EEixEi(ptr noundef nonnull align 4 dereferenceable(64) %11, i32 noundef 0)
  %13 = getelementptr inbounds float, ptr %12, i64 0
  %14 = load float, ptr %13, align 4
  %15 = fcmp oeq float %9, %14
  br i1 %15, label %16, label %181

16:                                               ; preds = %2
  %17 = getelementptr inbounds nuw %"class.pxrInternal_v0_24__pxrReserved__::GfMatrix4f", ptr %5, i32 0, i32 0
  %18 = call noundef ptr @_ZNK32pxrInternal_v0_24__pxrReserved__12GfMatrixDataIfLi4ELi4EEixEi(ptr noundef nonnull align 4 dereferenceable(64) %17, i32 noundef 0)
  %19 = getelementptr inbounds float, ptr %18, i64 1
  %20 = load float, ptr %19, align 4
  %21 = load ptr, ptr %4, align 8
  %22 = getelementptr inbounds nuw %"class.pxrInternal_v0_24__pxrReserved__::GfMatrix4f", ptr %21, i32 0, i32 0
  %23 = call noundef ptr @_ZNK32pxrInternal_v0_24__pxrReserved__12GfMatrixDataIfLi4ELi4EEixEi(ptr noundef nonnull align 4 dereferenceable(64) %22, i32 noundef 0)
  %24 = getelementptr inbounds float, ptr %23, i64 1
  %25 = load float, ptr %24, align 4
  %26 = fcmp oeq float %20, %25
  br i1 %26, label %27, label %181

27:                                               ; preds = %16
  %28 = getelementptr inbounds nuw %"class.pxrInternal_v0_24__pxrReserved__::GfMatrix4f", ptr %5, i32 0, i32 0
  %29 = call noundef ptr @_ZNK32pxrInternal_v0_24__pxrReserved__12GfMatrixDataIfLi4ELi4EEixEi(ptr noundef nonnull align 4 dereferenceable(64) %28, i32 noundef 0)
  %30 = getelementptr inbounds float, ptr %29, i64 2
  %31 = load float, ptr %30, align 4
  %32 = load ptr, ptr %4, align 8
  %33 = getelementptr inbounds nuw %"class.pxrInternal_v0_24__pxrReserved__::GfMatrix4f", ptr %32, i32 0, i32 0
  %34 = call noundef ptr @_ZNK32pxrInternal_v0_24__pxrReserved__12GfMatrixDataIfLi4ELi4EEixEi(ptr noundef nonnull align 4 dereferenceable(64) %33, i32 noundef 0)
  %35 = getelementptr inbounds float, ptr %34, i64 2
  %36 = load float, ptr %35, align 4
  %37 = fcmp oeq float %31, %36
  br i1 %37, label %38, label %181

38:                                               ; preds = %27
  %39 = getelementptr inbounds nuw %"class.pxrInternal_v0_24__pxrReserved__::GfMatrix4f", ptr %5, i32 0, i32 0
  %40 = call noundef ptr @_ZNK32pxrInternal_v0_24__pxrReserved__12GfMatrixDataIfLi4ELi4EEixEi(ptr noundef nonnull align 4 dereferenceable(64) %39, i32 noundef 0)
  %41 = getelementptr inbounds float, ptr %40, i64 3
  %42 = load float, ptr %41, align 4
  %43 = load ptr, ptr %4, align 8
  %44 = getelementptr inbounds nuw %"class.pxrInternal_v0_24__pxrReserved__::GfMatrix4f", ptr %43, i32 0, i32 0
  %45 = call noundef ptr @_ZNK32pxrInternal_v0_24__pxrReserved__12GfMatrixDataIfLi4ELi4EEixEi(ptr noundef nonnull align 4 dereferenceable(64) %44, i32 noundef 0)
  %46 = getelementptr inbounds float, ptr %45, i64 3
  %47 = load float, ptr %46, align 4
  %48 = fcmp oeq float %42, %47
  br i1 %48, label %49, label %181

49:                                               ; preds = %38
  %50 = getelementptr inbounds nuw %"class.pxrInternal_v0_24__pxrReserved__::GfMatrix4f", ptr %5, i32 0, i32 0
  %51 = call noundef ptr @_ZNK32pxrInternal_v0_24__pxrReserved__12GfMatrixDataIfLi4ELi4EEixEi(ptr noundef nonnull align 4 dereferenceable(64) %50, i32 noundef 1)
  %52 = getelementptr inbounds float, ptr %51, i64 0
  %53 = load float, ptr %52, align 4
  %54 = load ptr, ptr %4, align 8
  %55 = getelementptr inbounds nuw %"class.pxrInternal_v0_24__pxrReserved__::GfMatrix4f", ptr %54, i32 0, i32 0
  %56 = call noundef ptr @_ZNK32pxrInternal_v0_24__pxrReserved__12GfMatrixDataIfLi4ELi4EEixEi(ptr noundef nonnull align 4 dereferenceable(64) %55, i32 noundef 1)
  %57 = getelementptr inbounds float, ptr %56, i64 0
  %58 = load float, ptr %57, align 4
  %59 = fcmp oeq float %53, %58
  br i1 %59, label %60, label %181

60:                                               ; preds = %49
  %61 = getelementptr inbounds nuw %"class.pxrInternal_v0_24__pxrReserved__::GfMatrix4f", ptr %5, i32 0, i32 0
  %62 = call noundef ptr @_ZNK32pxrInternal_v0_24__pxrReserved__12GfMatrixDataIfLi4ELi4EEixEi(ptr noundef nonnull align 4 dereferenceable(64) %61, i32 noundef 1)
  %63 = getelementptr inbounds float, ptr %62, i64 1
  %64 = load float, ptr %63, align 4
  %65 = load ptr, ptr %4, align 8
  %66 = getelementptr inbounds nuw %"class.pxrInternal_v0_24__pxrReserved__::GfMatrix4f", ptr %65, i32 0, i32 0
  %67 = call noundef ptr @_ZNK32pxrInternal_v0_24__pxrReserved__12GfMatrixDataIfLi4ELi4EEixEi(ptr noundef nonnull align 4 dereferenceable(64) %66, i32 noundef 1)
  %68 = getelementptr inbounds float, ptr %67, i64 1
  %69 = load float, ptr %68, align 4
  %70 = fcmp oeq float %64, %69
  br i1 %70, label %71, label %181

71:                                               ; preds = %60
  %72 = getelementptr inbounds nuw %"class.pxrInternal_v0_24__pxrReserved__::GfMatrix4f", ptr %5, i32 0, i32 0
  %73 = call noundef ptr @_ZNK32pxrInternal_v0_24__pxrReserved__12GfMatrixDataIfLi4ELi4EEixEi(ptr noundef nonnull align 4 dereferenceable(64) %72, i32 noundef 1)
  %74 = getelementptr inbounds float, ptr %73, i64 2
  %75 = load float, ptr %74, align 4
  %76 = load ptr, ptr %4, align 8
  %77 = getelementptr inbounds nuw %"class.pxrInternal_v0_24__pxrReserved__::GfMatrix4f", ptr %76, i32 0, i32 0
  %78 = call noundef ptr @_ZNK32pxrInternal_v0_24__pxrReserved__12GfMatrixDataIfLi4ELi4EEixEi(ptr noundef nonnull align 4 dereferenceable(64) %77, i32 noundef 1)
  %79 = getelementptr inbounds float, ptr %78, i64 2
  %80 = load float, ptr %79, align 4
  %81 = fcmp oeq float %75, %80
  br i1 %81, label %82, label %181

82:                                               ; preds = %71
  %83 = getelementptr inbounds nuw %"class.pxrInternal_v0_24__pxrReserved__::GfMatrix4f", ptr %5, i32 0, i32 0
  %84 = call noundef ptr @_ZNK32pxrInternal_v0_24__pxrReserved__12GfMatrixDataIfLi4ELi4EEixEi(ptr noundef nonnull align 4 dereferenceable(64) %83, i32 noundef 1)
  %85 = getelementptr inbounds float, ptr %84, i64 3
  %86 = load float, ptr %85, align 4
  %87 = load ptr, ptr %4, align 8
  %88 = getelementptr inbounds nuw %"class.pxrInternal_v0_24__pxrReserved__::GfMatrix4f", ptr %87, i32 0, i32 0
  %89 = call noundef ptr @_ZNK32pxrInternal_v0_24__pxrReserved__12GfMatrixDataIfLi4ELi4EEixEi(ptr noundef nonnull align 4 dereferenceable(64) %88, i32 noundef 1)
  %90 = getelementptr inbounds float, ptr %89, i64 3
  %91 = load float, ptr %90, align 4
  %92 = fcmp oeq float %86, %91
  br i1 %92, label %93, label %181

93:                                               ; preds = %82
  %94 = getelementptr inbounds nuw %"class.pxrInternal_v0_24__pxrReserved__::GfMatrix4f", ptr %5, i32 0, i32 0
  %95 = call noundef ptr @_ZNK32pxrInternal_v0_24__pxrReserved__12GfMatrixDataIfLi4ELi4EEixEi(ptr noundef nonnull align 4 dereferenceable(64) %94, i32 noundef 2)
  %96 = getelementptr inbounds float, ptr %95, i64 0
  %97 = load float, ptr %96, align 4
  %98 = load ptr, ptr %4, align 8
  %99 = getelementptr inbounds nuw %"class.pxrInternal_v0_24__pxrReserved__::GfMatrix4f", ptr %98, i32 0, i32 0
  %100 = call noundef ptr @_ZNK32pxrInternal_v0_24__pxrReserved__12GfMatrixDataIfLi4ELi4EEixEi(ptr noundef nonnull align 4 dereferenceable(64) %99, i32 noundef 2)
  %101 = getelementptr inbounds float, ptr %100, i64 0
  %102 = load float, ptr %101, align 4
  %103 = fcmp oeq float %97, %102
  br i1 %103, label %104, label %181

104:                                              ; preds = %93
  %105 = getelementptr inbounds nuw %"class.pxrInternal_v0_24__pxrReserved__::GfMatrix4f", ptr %5, i32 0, i32 0
  %106 = call noundef ptr @_ZNK32pxrInternal_v0_24__pxrReserved__12GfMatrixDataIfLi4ELi4EEixEi(ptr noundef nonnull align 4 dereferenceable(64) %105, i32 noundef 2)
  %107 = getelementptr inbounds float, ptr %106, i64 1
  %108 = load float, ptr %107, align 4
  %109 = load ptr, ptr %4, align 8
  %110 = getelementptr inbounds nuw %"class.pxrInternal_v0_24__pxrReserved__::GfMatrix4f", ptr %109, i32 0, i32 0
  %111 = call noundef ptr @_ZNK32pxrInternal_v0_24__pxrReserved__12GfMatrixDataIfLi4ELi4EEixEi(ptr noundef nonnull align 4 dereferenceable(64) %110, i32 noundef 2)
  %112 = getelementptr inbounds float, ptr %111, i64 1
  %113 = load float, ptr %112, align 4
  %114 = fcmp oeq float %108, %113
  br i1 %114, label %115, label %181

115:                                              ; preds = %104
  %116 = getelementptr inbounds nuw %"class.pxrInternal_v0_24__pxrReserved__::GfMatrix4f", ptr %5, i32 0, i32 0
  %117 = call noundef ptr @_ZNK32pxrInternal_v0_24__pxrReserved__12GfMatrixDataIfLi4ELi4EEixEi(ptr noundef nonnull align 4 dereferenceable(64) %116, i32 noundef 2)
  %118 = getelementptr inbounds float, ptr %117, i64 2
  %119 = load float, ptr %118, align 4
  %120 = load ptr, ptr %4, align 8
  %121 = getelementptr inbounds nuw %"class.pxrInternal_v0_24__pxrReserved__::GfMatrix4f", ptr %120, i32 0, i32 0
  %122 = call noundef ptr @_ZNK32pxrInternal_v0_24__pxrReserved__12GfMatrixDataIfLi4ELi4EEixEi(ptr noundef nonnull align 4 dereferenceable(64) %121, i32 noundef 2)
  %123 = getelementptr inbounds float, ptr %122, i64 2
  %124 = load float, ptr %123, align 4
  %125 = fcmp oeq float %119, %124
  br i1 %125, label %126, label %181

126:                                              ; preds = %115
  %127 = getelementptr inbounds nuw %"class.pxrInternal_v0_24__pxrReserved__::GfMatrix4f", ptr %5, i32 0, i32 0
  %128 = call noundef ptr @_ZNK32pxrInternal_v0_24__pxrReserved__12GfMatrixDataIfLi4ELi4EEixEi(ptr noundef nonnull align 4 dereferenceable(64) %127, i32 noundef 2)
  %129 = getelementptr inbounds float, ptr %128, i64 3
  %130 = load float, ptr %129, align 4
  %131 = load ptr, ptr %4, align 8
  %132 = getelementptr inbounds nuw %"class.pxrInternal_v0_24__pxrReserved__::GfMatrix4f", ptr %131, i32 0, i32 0
  %133 = call noundef ptr @_ZNK32pxrInternal_v0_24__pxrReserved__12GfMatrixDataIfLi4ELi4EEixEi(ptr noundef nonnull align 4 dereferenceable(64) %132, i32 noundef 2)
  %134 = getelementptr inbounds float, ptr %133, i64 3
  %135 = load float, ptr %134, align 4
  %136 = fcmp oeq float %130, %135
  br i1 %136, label %137, label %181

137:                                              ; preds = %126
  %138 = getelementptr inbounds nuw %"class.pxrInternal_v0_24__pxrReserved__::GfMatrix4f", ptr %5, i32 0, i32 0
  %139 = call noundef ptr @_ZNK32pxrInternal_v0_24__pxrReserved__12GfMatrixDataIfLi4ELi4EEixEi(ptr noundef nonnull align 4 dereferenceable(64) %138, i32 noundef 3)
  %140 = getelementptr inbounds float, ptr %139, i64 0
  %141 = load float, ptr %140, align 4
  %142 = load ptr, ptr %4, align 8
  %143 = getelementptr inbounds nuw %"class.pxrInternal_v0_24__pxrReserved__::GfMatrix4f", ptr %142, i32 0, i32 0
  %144 = call noundef ptr @_ZNK32pxrInternal_v0_24__pxrReserved__12GfMatrixDataIfLi4ELi4EEixEi(ptr noundef nonnull align 4 dereferenceable(64) %143, i32 noundef 3)
  %145 = getelementptr inbounds float, ptr %144, i64 0
  %146 = load float, ptr %145, align 4
  %147 = fcmp oeq float %141, %146
  br i1 %147, label %148, label %181

148:                                              ; preds = %137
  %149 = getelementptr inbounds nuw %"class.pxrInternal_v0_24__pxrReserved__::GfMatrix4f", ptr %5, i32 0, i32 0
  %150 = call noundef ptr @_ZNK32pxrInternal_v0_24__pxrReserved__12GfMatrixDataIfLi4ELi4EEixEi(ptr noundef nonnull align 4 dereferenceable(64) %149, i32 noundef 3)
  %151 = getelementptr inbounds float, ptr %150, i64 1
  %152 = load float, ptr %151, align 4
  %153 = load ptr, ptr %4, align 8
  %154 = getelementptr inbounds nuw %"class.pxrInternal_v0_24__pxrReserved__::GfMatrix4f", ptr %153, i32 0, i32 0
  %155 = call noundef ptr @_ZNK32pxrInternal_v0_24__pxrReserved__12GfMatrixDataIfLi4ELi4EEixEi(ptr noundef nonnull align 4 dereferenceable(64) %154, i32 noundef 3)
  %156 = getelementptr inbounds float, ptr %155, i64 1
  %157 = load float, ptr %156, align 4
  %158 = fcmp oeq float %152, %157
  br i1 %158, label %159, label %181

159:                                              ; preds = %148
  %160 = getelementptr inbounds nuw %"class.pxrInternal_v0_24__pxrReserved__::GfMatrix4f", ptr %5, i32 0, i32 0
  %161 = call noundef ptr @_ZNK32pxrInternal_v0_24__pxrReserved__12GfMatrixDataIfLi4ELi4EEixEi(ptr noundef nonnull align 4 dereferenceable(64) %160, i32 noundef 3)
  %162 = getelementptr inbounds float, ptr %161, i64 2
  %163 = load float, ptr %162, align 4
  %164 = load ptr, ptr %4, align 8
  %165 = getelementptr inbounds nuw %"class.pxrInternal_v0_24__pxrReserved__::GfMatrix4f", ptr %164, i32 0, i32 0
  %166 = call noundef ptr @_ZNK32pxrInternal_v0_24__pxrReserved__12GfMatrixDataIfLi4ELi4EEixEi(ptr noundef nonnull align 4 dereferenceable(64) %165, i32 noundef 3)
  %167 = getelementptr inbounds float, ptr %166, i64 2
  %168 = load float, ptr %167, align 4
  %169 = fcmp oeq float %163, %168
  br i1 %169, label %170, label %181

170:                                              ; preds = %159
  %171 = getelementptr inbounds nuw %"class.pxrInternal_v0_24__pxrReserved__::GfMatrix4f", ptr %5, i32 0, i32 0
  %172 = call noundef ptr @_ZNK32pxrInternal_v0_24__pxrReserved__12GfMatrixDataIfLi4ELi4EEixEi(ptr noundef nonnull align 4 dereferenceable(64) %171, i32 noundef 3)
  %173 = getelementptr inbounds float, ptr %172, i64 3
  %174 = load float, ptr %173, align 4
  %175 = load ptr, ptr %4, align 8
  %176 = getelementptr inbounds nuw %"class.pxrInternal_v0_24__pxrReserved__::GfMatrix4f", ptr %175, i32 0, i32 0
  %177 = call noundef ptr @_ZNK32pxrInternal_v0_24__pxrReserved__12GfMatrixDataIfLi4ELi4EEixEi(ptr noundef nonnull align 4 dereferenceable(64) %176, i32 noundef 3)
  %178 = getelementptr inbounds float, ptr %177, i64 3
  %179 = load float, ptr %178, align 4
  %180 = fcmp oeq float %174, %179
  br label %181

181:                                              ; preds = %170, %159, %148, %137, %126, %115, %104, %93, %82, %71, %60, %49, %38, %27, %16, %2
  %182 = phi i1 [ false, %159 ], [ false, %148 ], [ false, %137 ], [ false, %126 ], [ false, %115 ], [ false, %104 ], [ false, %93 ], [ false, %82 ], [ false, %71 ], [ false, %60 ], [ false, %49 ], [ false, %38 ], [ false, %27 ], [ false, %16 ], [ false, %2 ], [ %180, %170 ]
  ret i1 %182
}