; Function Attrs: mustprogress nofree norecurse nosync nounwind willreturn memory(argmem: read) uwtable
define noundef zeroext i1 @_ZNK32pxrInternal_v0_24__pxrReserved__10GfMatrix4feqERKS0_(ptr noundef nonnull readonly align 4 captures(none) dereferenceable(64) %0, ptr noundef nonnull readonly align 4 captures(none) dereferenceable(64) %1) local_unnamed_addr #6 align 2 {
  %3 = load float, ptr %0, align 4
  %4 = load float, ptr %1, align 4
  %5 = fcmp oeq float %3, %4
  br i1 %5, label %6, label %96

6:                                                ; preds = %2
  %7 = getelementptr inbounds nuw i8, ptr %0, i64 4
  %8 = load float, ptr %7, align 4
  %9 = getelementptr inbounds nuw i8, ptr %1, i64 4
  %10 = load float, ptr %9, align 4
  %11 = fcmp oeq float %8, %10
  br i1 %11, label %12, label %96

12:                                               ; preds = %6
  %13 = getelementptr inbounds nuw i8, ptr %0, i64 8
  %14 = load float, ptr %13, align 4
  %15 = getelementptr inbounds nuw i8, ptr %1, i64 8
  %16 = load float, ptr %15, align 4
  %17 = fcmp oeq float %14, %16
  br i1 %17, label %18, label %96

18:                                               ; preds = %12
  %19 = getelementptr inbounds nuw i8, ptr %0, i64 12
  %20 = load float, ptr %19, align 4
  %21 = getelementptr inbounds nuw i8, ptr %1, i64 12
  %22 = load float, ptr %21, align 4
  %23 = fcmp oeq float %20, %22
  br i1 %23, label %24, label %96

24:                                               ; preds = %18
  %25 = getelementptr inbounds nuw i8, ptr %0, i64 16
  %26 = load float, ptr %25, align 4
  %27 = getelementptr inbounds nuw i8, ptr %1, i64 16
  %28 = load float, ptr %27, align 4
  %29 = fcmp oeq float %26, %28
  br i1 %29, label %30, label %96

30:                                               ; preds = %24
  %31 = getelementptr inbounds nuw i8, ptr %0, i64 20
  %32 = load float, ptr %31, align 4
  %33 = getelementptr inbounds nuw i8, ptr %1, i64 20
  %34 = load float, ptr %33, align 4
  %35 = fcmp oeq float %32, %34
  br i1 %35, label %36, label %96

36:                                               ; preds = %30
  %37 = getelementptr inbounds nuw i8, ptr %0, i64 24
  %38 = load float, ptr %37, align 4
  %39 = getelementptr inbounds nuw i8, ptr %1, i64 24
  %40 = load float, ptr %39, align 4
  %41 = fcmp oeq float %38, %40
  br i1 %41, label %42, label %96

42:                                               ; preds = %36
  %43 = getelementptr inbounds nuw i8, ptr %0, i64 28
  %44 = load float, ptr %43, align 4
  %45 = getelementptr inbounds nuw i8, ptr %1, i64 28
  %46 = load float, ptr %45, align 4
  %47 = fcmp oeq float %44, %46
  br i1 %47, label %48, label %96

48:                                               ; preds = %42
  %49 = getelementptr inbounds nuw i8, ptr %0, i64 32
  %50 = load float, ptr %49, align 4
  %51 = getelementptr inbounds nuw i8, ptr %1, i64 32
  %52 = load float, ptr %51, align 4
  %53 = fcmp oeq float %50, %52
  br i1 %53, label %54, label %96

54:                                               ; preds = %48
  %55 = getelementptr inbounds nuw i8, ptr %0, i64 36
  %56 = load float, ptr %55, align 4
  %57 = getelementptr inbounds nuw i8, ptr %1, i64 36
  %58 = load float, ptr %57, align 4
  %59 = fcmp oeq float %56, %58
  br i1 %59, label %60, label %96

60:                                               ; preds = %54
  %61 = getelementptr inbounds nuw i8, ptr %0, i64 40
  %62 = load float, ptr %61, align 4
  %63 = getelementptr inbounds nuw i8, ptr %1, i64 40
  %64 = load float, ptr %63, align 4
  %65 = fcmp oeq float %62, %64
  br i1 %65, label %66, label %96

66:                                               ; preds = %60
  %67 = getelementptr inbounds nuw i8, ptr %0, i64 44
  %68 = load float, ptr %67, align 4
  %69 = getelementptr inbounds nuw i8, ptr %1, i64 44
  %70 = load float, ptr %69, align 4
  %71 = fcmp oeq float %68, %70
  br i1 %71, label %72, label %96

72:                                               ; preds = %66
  %73 = getelementptr inbounds nuw i8, ptr %0, i64 48
  %74 = load float, ptr %73, align 4
  %75 = getelementptr inbounds nuw i8, ptr %1, i64 48
  %76 = load float, ptr %75, align 4
  %77 = fcmp oeq float %74, %76
  br i1 %77, label %78, label %96

78:                                               ; preds = %72
  %79 = getelementptr inbounds nuw i8, ptr %0, i64 52
  %80 = load float, ptr %79, align 4
  %81 = getelementptr inbounds nuw i8, ptr %1, i64 52
  %82 = load float, ptr %81, align 4
  %83 = fcmp oeq float %80, %82
  br i1 %83, label %84, label %96

84:                                               ; preds = %78
  %85 = getelementptr inbounds nuw i8, ptr %0, i64 56
  %86 = load float, ptr %85, align 4
  %87 = getelementptr inbounds nuw i8, ptr %1, i64 56
  %88 = load float, ptr %87, align 4
  %89 = fcmp oeq float %86, %88
  br i1 %89, label %90, label %96

90:                                               ; preds = %84
  %91 = getelementptr inbounds nuw i8, ptr %0, i64 60
  %92 = load float, ptr %91, align 4
  %93 = getelementptr inbounds nuw i8, ptr %1, i64 60
  %94 = load float, ptr %93, align 4
  %95 = fcmp oeq float %92, %94
  br label %96

96:                                               ; preds = %90, %84, %78, %72, %66, %60, %54, %48, %42, %36, %30, %24, %18, %12, %6, %2
  %97 = phi i1 [ false, %84 ], [ false, %78 ], [ false, %72 ], [ false, %66 ], [ false, %60 ], [ false, %54 ], [ false, %48 ], [ false, %42 ], [ false, %36 ], [ false, %30 ], [ false, %24 ], [ false, %18 ], [ false, %12 ], [ false, %6 ], [ false, %2 ], [ %95, %90 ]
  ret i1 %97
}